target datalayout = "e-m:e-p270:32:32-p271:32:32-p272:64:64-i64:64-f80:128-n8:16:32:64-S128"
target triple = "x86_64-pc-linux-gnu"

%struct.book = type { i32, [26 x i8], %struct.book* }

@.str = private unnamed_addr constant [6 x i8] c"%d %s\00", align 1
@.str.1 = private unnamed_addr constant [3 x i8] c"%d\00", align 1
@.str.2 = private unnamed_addr constant [4 x i8] c"%c\0A\00", align 1
@.str.3 = private unnamed_addr constant [4 x i8] c"%d\0A\00", align 1

; Function Attrs: noinline nounwind uwtable
define dso_local %struct.book* @creat(i32 %0) #0 {
  %2 = alloca i32, align 4
  %3 = alloca i32, align 4
  %4 = alloca %struct.book*, align 8
  %5 = alloca %struct.book*, align 8
  %6 = alloca %struct.book*, align 8
  store i32 %0, i32* %2, align 4
  store i32 0, i32* %3, align 4
  %7 = load i32, i32* %3, align 4
  %8 = icmp eq i32 %7, 0
  br i1 %8, label %9, label %24

9:                                                ; preds = %1
  %10 = call noalias i8* @malloc(i64 40) #5
  %11 = bitcast i8* %10 to %struct.book*
  store %struct.book* %11, %struct.book** %5, align 8
  %12 = load %struct.book*, %struct.book** %5, align 8
  %13 = getelementptr inbounds %struct.book, %struct.book* %12, i32 0, i32 0
  %14 = load %struct.book*, %struct.book** %5, align 8
  %15 = getelementptr inbounds %struct.book, %struct.book* %14, i32 0, i32 1
  %16 = getelementptr inbounds [26 x i8], [26 x i8]* %15, i64 0, i64 0
  %17 = call i32 (i8*, ...) @__isoc99_scanf(i8* getelementptr inbounds ([6 x i8], [6 x i8]* @.str, i64 0, i64 0), i32* %13, i8* %16)
  %18 = load %struct.book*, %struct.book** %5, align 8
  store %struct.book* %18, %struct.book** %4, align 8
  %19 = load %struct.book*, %struct.book** %5, align 8
  store %struct.book* %19, %struct.book** %6, align 8
  %20 = load %struct.book*, %struct.book** %5, align 8
  %21 = getelementptr inbounds %struct.book, %struct.book* %20, i32 0, i32 2
  store %struct.book* null, %struct.book** %21, align 8
  %22 = load i32, i32* %3, align 4
  %23 = add nsw i32 %22, 1
  store i32 %23, i32* %3, align 4
  br label %24

24:                                               ; preds = %9, %1
  br label %25

25:                                               ; preds = %29, %24
  %26 = load i32, i32* %3, align 4
  %27 = load i32, i32* %2, align 4
  %28 = icmp slt i32 %26, %27
  br i1 %28, label %29, label %46

29:                                               ; preds = %25
  %30 = call noalias i8* @malloc(i64 40) #5
  %31 = bitcast i8* %30 to %struct.book*
  store %struct.book* %31, %struct.book** %5, align 8
  %32 = load %struct.book*, %struct.book** %5, align 8
  %33 = getelementptr inbounds %struct.book, %struct.book* %32, i32 0, i32 0
  %34 = load %struct.book*, %struct.book** %5, align 8
  %35 = getelementptr inbounds %struct.book, %struct.book* %34, i32 0, i32 1
  %36 = getelementptr inbounds [26 x i8], [26 x i8]* %35, i64 0, i64 0
  %37 = call i32 (i8*, ...) @__isoc99_scanf(i8* getelementptr inbounds ([6 x i8], [6 x i8]* @.str, i64 0, i64 0), i32* %33, i8* %36)
  %38 = load %struct.book*, %struct.book** %5, align 8
  %39 = load %struct.book*, %struct.book** %6, align 8
  %40 = getelementptr inbounds %struct.book, %struct.book* %39, i32 0, i32 2
  store %struct.book* %38, %struct.book** %40, align 8
  %41 = load %struct.book*, %struct.book** %5, align 8
  %42 = getelementptr inbounds %struct.book, %struct.book* %41, i32 0, i32 2
  store %struct.book* null, %struct.book** %42, align 8
  %43 = load %struct.book*, %struct.book** %5, align 8
  store %struct.book* %43, %struct.book** %6, align 8
  %44 = load i32, i32* %3, align 4
  %45 = add nsw i32 %44, 1
  store i32 %45, i32* %3, align 4
  br label %25

46:                                               ; preds = %25
  %47 = load %struct.book*, %struct.book** %4, align 8
  ret %struct.book* %47
}

; Function Attrs: noinline nounwind uwtable
define dso_local i32 @main() #0 {
  %1 = alloca i32, align 4
  %2 = alloca i32, align 4
  %3 = alloca i32, align 4
  %4 = alloca i32, align 4
  %5 = alloca i32, align 4
  %6 = alloca i32, align 4
  %7 = alloca [26 x i32], align 16
  %8 = alloca %struct.book*, align 8
  %9 = alloca %struct.book*, align 8
  store i32 0, i32* %1, align 4
  store i32 0, i32* %5, align 4
  store i32 27, i32* %6, align 4
  %10 = bitcast [26 x i32]* %7 to i8*
  call void @llvm.memset.p0i8.i64(i8* align 16 %10, i8 0, i64 104, i1 false)
  %11 = call i32 (i8*, ...) @__isoc99_scanf(i8* getelementptr inbounds ([3 x i8], [3 x i8]* @.str.1, i64 0, i64 0), i32* %2)
  %12 = load i32, i32* %2, align 4
  %13 = call %struct.book* @creat(i32 %12)
  store %struct.book* %13, %struct.book** %8, align 8
  %14 = load %struct.book*, %struct.book** %8, align 8
  store %struct.book* %14, %struct.book** %9, align 8
  br label %15

15:                                               ; preds = %44, %0
  %16 = load %struct.book*, %struct.book** %9, align 8
  %17 = icmp ne %struct.book* %16, null
  br i1 %17, label %18, label %48

18:                                               ; preds = %15
  %19 = load %struct.book*, %struct.book** %9, align 8
  %20 = getelementptr inbounds %struct.book, %struct.book* %19, i32 0, i32 1
  %21 = getelementptr inbounds [26 x i8], [26 x i8]* %20, i64 0, i64 0
  %22 = call i64 @strlen(i8* %21) #6
  %23 = trunc i64 %22 to i32
  store i32 %23, i32* %4, align 4
  store i32 0, i32* %3, align 4
  br label %24

24:                                               ; preds = %41, %18
  %25 = load i32, i32* %3, align 4
  %26 = load i32, i32* %4, align 4
  %27 = icmp slt i32 %25, %26
  br i1 %27, label %28, label %44

28:                                               ; preds = %24
  %29 = load %struct.book*, %struct.book** %9, align 8
  %30 = getelementptr inbounds %struct.book, %struct.book* %29, i32 0, i32 1
  %31 = load i32, i32* %3, align 4
  %32 = sext i32 %31 to i64
  %33 = getelementptr inbounds [26 x i8], [26 x i8]* %30, i64 0, i64 %32
  %34 = load i8, i8* %33, align 1
  %35 = sext i8 %34 to i32
  %36 = sub nsw i32 %35, 65
  %37 = sext i32 %36 to i64
  %38 = getelementptr inbounds [26 x i32], [26 x i32]* %7, i64 0, i64 %37
  %39 = load i32, i32* %38, align 4
  %40 = add nsw i32 %39, 1
  store i32 %40, i32* %38, align 4
  br label %41

41:                                               ; preds = %28
  %42 = load i32, i32* %3, align 4
  %43 = add nsw i32 %42, 1
  store i32 %43, i32* %3, align 4
  br label %24

44:                                               ; preds = %24
  %45 = load %struct.book*, %struct.book** %9, align 8
  %46 = getelementptr inbounds %struct.book, %struct.book* %45, i32 0, i32 2
  %47 = load %struct.book*, %struct.book** %46, align 8
  store %struct.book* %47, %struct.book** %9, align 8
  br label %15

48:                                               ; preds = %15
  store i32 0, i32* %3, align 4
  br label %49

49:                                               ; preds = %66, %48
  %50 = load i32, i32* %3, align 4
  %51 = icmp slt i32 %50, 26
  br i1 %51, label %52, label %69

52:                                               ; preds = %49
  %53 = load i32, i32* %3, align 4
  %54 = sext i32 %53 to i64
  %55 = getelementptr inbounds [26 x i32], [26 x i32]* %7, i64 0, i64 %54
  %56 = load i32, i32* %55, align 4
  %57 = load i32, i32* %5, align 4
  %58 = icmp sgt i32 %56, %57
  br i1 %58, label %59, label %65

59:                                               ; preds = %52
  %60 = load i32, i32* %3, align 4
  %61 = sext i32 %60 to i64
  %62 = getelementptr inbounds [26 x i32], [26 x i32]* %7, i64 0, i64 %61
  %63 = load i32, i32* %62, align 4
  store i32 %63, i32* %5, align 4
  %64 = load i32, i32* %3, align 4
  store i32 %64, i32* %6, align 4
  br label %65

65:                                               ; preds = %59, %52
  br label %66

66:                                               ; preds = %65
  %67 = load i32, i32* %3, align 4
  %68 = add nsw i32 %67, 1
  store i32 %68, i32* %3, align 4
  br label %49

69:                                               ; preds = %49
  %70 = load i32, i32* %6, align 4
  %71 = add nsw i32 %70, 65
  %72 = call i32 (i8*, ...) @printf(i8* getelementptr inbounds ([4 x i8], [4 x i8]* @.str.2, i64 0, i64 0), i32 %71)
  %73 = load i32, i32* %5, align 4
  %74 = call i32 (i8*, ...) @printf(i8* getelementptr inbounds ([4 x i8], [4 x i8]* @.str.3, i64 0, i64 0), i32 %73)
  %75 = load %struct.book*, %struct.book** %8, align 8
  store %struct.book* %75, %struct.book** %9, align 8
  br label %76

76:                                               ; preds = %109, %69
  %77 = load %struct.book*, %struct.book** %9, align 8
  %78 = icmp ne %struct.book* %77, null
  br i1 %78, label %79, label %113

79:                                               ; preds = %76
  %80 = load %struct.book*, %struct.book** %9, align 8
  %81 = getelementptr inbounds %struct.book, %struct.book* %80, i32 0, i32 1
  %82 = getelementptr inbounds [26 x i8], [26 x i8]* %81, i64 0, i64 0
  %83 = call i64 @strlen(i8* %82) #6
  %84 = trunc i64 %83 to i32
  store i32 %84, i32* %4, align 4
  store i32 0, i32* %3, align 4
  br label %85

85:                                               ; preds = %106, %79
  %86 = load i32, i32* %3, align 4
  %87 = load i32, i32* %4, align 4
  %88 = icmp slt i32 %86, %87
  br i1 %88, label %89, label %109

89:                                               ; preds = %85
  %90 = load %struct.book*, %struct.book** %9, align 8
  %91 = getelementptr inbounds %struct.book, %struct.book* %90, i32 0, i32 1
  %92 = load i32, i32* %3, align 4
  %93 = sext i32 %92 to i64
  %94 = getelementptr inbounds [26 x i8], [26 x i8]* %91, i64 0, i64 %93
  %95 = load i8, i8* %94, align 1
  %96 = sext i8 %95 to i32
  %97 = load i32, i32* %6, align 4
  %98 = add nsw i32 %97, 65
  %99 = icmp eq i32 %96, %98
  br i1 %99, label %100, label %105

100:                                              ; preds = %89
  %101 = load %struct.book*, %struct.book** %9, align 8
  %102 = getelementptr inbounds %struct.book, %struct.book* %101, i32 0, i32 0
  %103 = load i32, i32* %102, align 8
  %104 = call i32 (i8*, ...) @printf(i8* getelementptr inbounds ([4 x i8], [4 x i8]* @.str.3, i64 0, i64 0), i32 %103)
  br label %109

105:                                              ; preds = %89
  br label %106

106:                                              ; preds = %105
  %107 = load i32, i32* %3, align 4
  %108 = add nsw i32 %107, 1
  store i32 %108, i32* %3, align 4
  br label %85

109:                                              ; preds = %100, %85
  %110 = load %struct.book*, %struct.book** %9, align 8
  %111 = getelementptr inbounds %struct.book, %struct.book* %110, i32 0, i32 2
  %112 = load %struct.book*, %struct.book** %111, align 8
  store %struct.book* %112, %struct.book** %9, align 8
  br label %76

113:                                              ; preds = %76
  ret i32 0
}